target datalayout = "e-m:e-p270:32:32-p271:32:32-p272:64:64-i64:64-i128:128-f80:128-n8:16:32:64-S128"
target triple = "x86_64-pc-linux-gnu"

@.str = private unnamed_addr constant [101 x i8] c"generated/home/dtcxzyw/WorkSpace/Projects/compilers/llvm-opt-benchmark/bench/hdf5/hdf5/src/H5Ptest.c\00", align 1
@__func__.H5P__get_class_path_test = private unnamed_addr constant [25 x i8] c"H5P__get_class_path_test\00", align 1
@H5E_ARGS_g = external global i64, align 8
@H5E_BADTYPE_g = external global i64, align 8
@.str.1 = private unnamed_addr constant [21 x i8] c"not a property class\00", align 1
@H5E_PLIST_g = external global i64, align 8
@H5E_NOTFOUND_g = external global i64, align 8
@.str.2 = private unnamed_addr constant [35 x i8] c"unable to query full path of class\00", align 1
@__func__.H5P__open_class_path_test = private unnamed_addr constant [26 x i8] c"H5P__open_class_path_test\00", align 1
@.str.3 = private unnamed_addr constant [19 x i8] c"invalid class path\00", align 1
@.str.4 = private unnamed_addr constant [36 x i8] c"unable to find class with full path\00", align 1
@H5E_CANTREGISTER_g = external global i64, align 8
@.str.5 = private unnamed_addr constant [39 x i8] c"unable to register property list class\00", align 1

; Function Attrs: nounwind uwtable
define ptr @H5P__get_class_path_test(i64 noundef %0) #0 {
  %2 = alloca i64, align 8
  %3 = alloca ptr, align 8
  %4 = alloca ptr, align 8
  %5 = alloca i8, align 1
  store i64 %0, ptr %2, align 8
  store ptr null, ptr %4, align 8
  store i8 0, ptr %5, align 1
  %6 = load i64, ptr %2, align 8
  %7 = call ptr @H5I_object_verify(i64 noundef %6, i32 noundef 10)
  store ptr %7, ptr %3, align 8
  %8 = icmp eq ptr null, %7
  br i1 %8, label %9, label %24

9:                                                ; preds = %1
  br label %10

10:                                               ; preds = %9
  br label %11

11:                                               ; preds = %10
  br label %12

12:                                               ; preds = %11
  %13 = load i64, ptr @H5E_ARGS_g, align 8
  %14 = load i64, ptr @H5E_BADTYPE_g, align 8
  %15 = call i32 (ptr, ptr, i32, i64, i64, ptr, ...) @H5E_printf_stack(ptr noundef @.str, ptr noundef @__func__.H5P__get_class_path_test, i32 noundef 62, i64 noundef %13, i64 noundef %14, ptr noundef @.str.1)
  br label %16

16:                                               ; preds = %12
  store i8 1, ptr %5, align 1
  %17 = load i8, ptr %5, align 1
  %18 = trunc i8 %17 to i1
  %19 = zext i1 %18 to i8
  store i8 %19, ptr %5, align 1
  br label %20

20:                                               ; preds = %16
  br label %21

21:                                               ; preds = %20
  store ptr null, ptr %4, align 8
  br label %44

22:                                               ; No predecessors!
  br label %23

23:                                               ; preds = %22
  br label %24

24:                                               ; preds = %23, %1
  %25 = load ptr, ptr %3, align 8
  %26 = call ptr @H5P__get_class_path(ptr noundef %25)
  store ptr %26, ptr %4, align 8
  %27 = icmp eq ptr null, %26
  br i1 %27, label %28, label %43

28:                                               ; preds = %24
  br label %29

29:                                               ; preds = %28
  br label %30

30:                                               ; preds = %29
  br label %31

31:                                               ; preds = %30
  %32 = load i64, ptr @H5E_PLIST_g, align 8
  %33 = load i64, ptr @H5E_NOTFOUND_g, align 8
  %34 = call i32 (ptr, ptr, i32, i64, i64, ptr, ...) @H5E_printf_stack(ptr noundef @.str, ptr noundef @__func__.H5P__get_class_path_test, i32 noundef 66, i64 noundef %32, i64 noundef %33, ptr noundef @.str.2)
  br label %35

35:                                               ; preds = %31
  store i8 1, ptr %5, align 1
  %36 = load i8, ptr %5, align 1
  %37 = trunc i8 %36 to i1
  %38 = zext i1 %37 to i8
  store i8 %38, ptr %5, align 1
  br label %39

39:                                               ; preds = %35
  br label %40

40:                                               ; preds = %39
  store ptr null, ptr %4, align 8
  br label %44

41:                                               ; No predecessors!
  br label %42

42:                                               ; preds = %41
  br label %43

43:                                               ; preds = %42, %24
  br label %44

44:                                               ; preds = %43, %40, %21
  %45 = load ptr, ptr %4, align 8
  ret ptr %45
}

declare ptr @H5I_object_verify(i64 noundef, i32 noundef) #1

declare i32 @H5E_printf_stack(ptr noundef, ptr noundef, i32 noundef, i64 noundef, i64 noundef, ptr noundef, ...) #1

declare ptr @H5P__get_class_path(ptr noundef) #1

; Function Attrs: nounwind uwtable
define i64 @H5P__open_class_path_test(ptr noundef %0) #0 {
  %2 = alloca ptr, align 8
  %3 = alloca ptr, align 8
  %4 = alloca i64, align 8
  %5 = alloca i8, align 1
  store ptr %0, ptr %2, align 8
  store ptr null, ptr %3, align 8
  store i64 -1, ptr %4, align 8
  store i8 0, ptr %5, align 1
  %6 = load ptr, ptr %2, align 8
  %7 = icmp eq ptr null, %6
  br i1 %7, label %13, label %8

8:                                                ; preds = %1
  %9 = load ptr, ptr %2, align 8
  %10 = load i8, ptr %9, align 1
  %11 = sext i8 %10 to i32
  %12 = icmp eq i32 %11, 0
  br i1 %12, label %13, label %28

13:                                               ; preds = %8, %1
  br label %14

14:                                               ; preds = %13
  br label %15

15:                                               ; preds = %14
  br label %16

16:                                               ; preds = %15
  %17 = load i64, ptr @H5E_ARGS_g, align 8
  %18 = load i64, ptr @H5E_BADTYPE_g, align 8
  %19 = call i32 (ptr, ptr, i32, i64, i64, ptr, ...) @H5E_printf_stack(ptr noundef @.str, ptr noundef @__func__.H5P__open_class_path_test, i32 noundef 102, i64 noundef %17, i64 noundef %18, ptr noundef @.str.3)
  br label %20

20:                                               ; preds = %16
  store i8 1, ptr %5, align 1
  %21 = load i8, ptr %5, align 1
  %22 = trunc i8 %21 to i1
  %23 = zext i1 %22 to i8
  store i8 %23, ptr %5, align 1
  br label %24

24:                                               ; preds = %20
  br label %25

25:                                               ; preds = %24
  store i64 -1, ptr %4, align 8
  br label %67

26:                                               ; No predecessors!
  br label %27

27:                                               ; preds = %26
  br label %28

28:                                               ; preds = %27, %8
  %29 = load ptr, ptr %2, align 8
  %30 = call ptr @H5P__open_class_path(ptr noundef %29)
  store ptr %30, ptr %3, align 8
  %31 = icmp eq ptr null, %30
  br i1 %31, label %32, label %47

32:                                               ; preds = %28
  br label %33

33:                                               ; preds = %32
  br label %34

34:                                               ; preds = %33
  br label %35

35:                                               ; preds = %34
  %36 = load i64, ptr @H5E_PLIST_g, align 8
  %37 = load i64, ptr @H5E_NOTFOUND_g, align 8
  %38 = call i32 (ptr, ptr, i32, i64, i64, ptr, ...) @H5E_printf_stack(ptr noundef @.str, ptr noundef @__func__.H5P__open_class_path_test, i32 noundef 106, i64 noundef %36, i64 noundef %37, ptr noundef @.str.4)
  br label %39

39:                                               ; preds = %35
  store i8 1, ptr %5, align 1
  %40 = load i8, ptr %5, align 1
  %41 = trunc i8 %40 to i1
  %42 = zext i1 %41 to i8
  store i8 %42, ptr %5, align 1
  br label %43

43:                                               ; preds = %39
  br label %44

44:                                               ; preds = %43
  store i64 -1, ptr %4, align 8
  br label %67

45:                                               ; No predecessors!
  br label %46

46:                                               ; preds = %45
  br label %47

47:                                               ; preds = %46, %28
  %48 = load ptr, ptr %3, align 8
  %49 = call i64 @H5I_register(i32 noundef 10, ptr noundef %48, i1 noundef zeroext true)
  store i64 %49, ptr %4, align 8
  %50 = icmp slt i64 %49, 0
  br i1 %50, label %51, label %66

51:                                               ; preds = %47
  br label %52

52:                                               ; preds = %51
  br label %53

53:                                               ; preds = %52
  br label %54

54:                                               ; preds = %53
  %55 = load i64, ptr @H5E_PLIST_g, align 8
  %56 = load i64, ptr @H5E_CANTREGISTER_g, align 8
  %57 = call i32 (ptr, ptr, i32, i64, i64, ptr, ...) @H5E_printf_stack(ptr noundef @.str, ptr noundef @__func__.H5P__open_class_path_test, i32 noundef 110, i64 noundef %55, i64 noundef %56, ptr noundef @.str.5)
  br label %58

58:                                               ; preds = %54
  store i8 1, ptr %5, align 1
  %59 = load i8, ptr %5, align 1
  %60 = trunc i8 %59 to i1
  %61 = zext i1 %60 to i8
  store i8 %61, ptr %5, align 1
  br label %62

62:                                               ; preds = %58
  br label %63

63:                                               ; preds = %62
  store i64 -1, ptr %4, align 8
  br label %67

64:                                               ; No predecessors!
  br label %65

65:                                               ; preds = %64
  br label %66

66:                                               ; preds = %65, %47
  br label %67

67:                                               ; preds = %66, %63, %44, %25
  %68 = load i64, ptr %4, align 8
  %69 = icmp eq i64 -1, %68
  br i1 %69, label %70, label %76

70:                                               ; preds = %67
  %71 = load ptr, ptr %3, align 8
  %72 = icmp ne ptr %71, null
  br i1 %72, label %73, label %76

73:                                               ; preds = %70
  %74 = load ptr, ptr %3, align 8
  %75 = call i32 @H5P__close_class(ptr noundef %74)
  br label %76

76:                                               ; preds = %73, %70, %67
  %77 = load i64, ptr %4, align 8
  ret i64 %77
}

declare ptr @H5P__open_class_path(ptr noundef) #1

declare i64 @H5I_register(i32 noundef, ptr noundef, i1 noundef zeroext) #1

declare i32 @H5P__close_class(ptr noundef) #1


!llvm.module.flags = !{!0, !1, !2, !3}

!0 = !{i32 1, !"wchar_size", i32 4}
!1 = !{i32 8, !"PIC Level", i32 2}
!2 = !{i32 7, !"uwtable", i32 2}
!3 = !{i32 7, !"frame-pointer", i32 2}
